	.file	"test1.c"
	.intel_syntax noprefix
	.text
	.globl	f1
	.type	f1, @function
f1:
.LFB0:
	.cfi_startproc
	push	rbp
	.cfi_def_cfa_offset 16
	.cfi_offset 6, -16
	mov	rbp, rsp
	.cfi_def_cfa_register 6
	mov	eax, 2
	pop	rbp
	.cfi_def_cfa 7, 8
	ret
	.cfi_endproc
.LFE0:
	.size	f1, .-f1
	.globl	f2
	.type	f2, @function
f2:
.LFB1:
	.cfi_startproc
	push	rbp
	.cfi_def_cfa_offset 16
	.cfi_offset 6, -16
	mov	rbp, rsp
	.cfi_def_cfa_register 6
	mov	DWORD PTR -20[rbp], edi
	mov	DWORD PTR -24[rbp], esi
	mov	eax, DWORD PTR -20[rbp]
	add	eax, eax
	mov	DWORD PTR -4[rbp], eax
	mov	edx, DWORD PTR -24[rbp]
	mov	eax, DWORD PTR -4[rbp]
	add	eax, edx
	pop	rbp
	.cfi_def_cfa 7, 8
	ret
	.cfi_endproc
.LFE1:
	.size	f2, .-f2
	.globl	f3
	.type	f3, @function
f3:
.LFB2:
	.cfi_startproc
	push	rbp
	.cfi_def_cfa_offset 16
	.cfi_offset 6, -16
	mov	rbp, rsp
	.cfi_def_cfa_register 6
	mov	eax, edi
	mov	DWORD PTR -8[rbp], esi
	mov	BYTE PTR -4[rbp], al
	mov	eax, DWORD PTR -8[rbp]
	mov	edx, eax
	movzx	eax, BYTE PTR -4[rbp]
	add	eax, edx
	mov	BYTE PTR -4[rbp], al
	movzx	eax, BYTE PTR -4[rbp]
	pop	rbp
	.cfi_def_cfa 7, 8
	ret
	.cfi_endproc
.LFE2:
	.size	f3, .-f3
	.globl	main
	.type	main, @function
main:
.LFB3:
	.cfi_startproc
	push	rbp
	.cfi_def_cfa_offset 16
	.cfi_offset 6, -16
	mov	rbp, rsp
	.cfi_def_cfa_register 6
	mov	eax, 0
	pop	rbp
	.cfi_def_cfa 7, 8
	ret
	.cfi_endproc
.LFE3:
	.size	main, .-main
	.ident	"GCC: (Ubuntu 7.5.0-3ubuntu1~18.04) 7.5.0"
	.section	.note.GNU-stack,"",@progbits
