	.file	"test16.c"
	.text
	.type	reverse, @function
reverse:
.LFB5:
	.cfi_startproc
	pushq	%rbp
	.cfi_def_cfa_offset 16
	.cfi_offset 6, -16
	movq	%rsp, %rbp
	.cfi_def_cfa_register 6
	movq	%rdi, -40(%rbp)
	movq	$0, -24(%rbp)
	movq	-40(%rbp), %rax
	movq	(%rax), %rax
	movq	%rax, -16(%rbp)
	jmp	.L2
.L3:
	movq	-16(%rbp), %rax
	movq	8(%rax), %rax
	movq	%rax, -8(%rbp)
	movq	-16(%rbp), %rax
	movq	-24(%rbp), %rdx
	movq	%rdx, 8(%rax)
	movq	-16(%rbp), %rax
	movq	%rax, -24(%rbp)
	movq	-8(%rbp), %rax
	movq	%rax, -16(%rbp)
.L2:
	cmpq	$0, -16(%rbp)
	jne	.L3
	movq	-40(%rbp), %rax
	movq	-24(%rbp), %rdx
	movq	%rdx, (%rax)
	nop
	popq	%rbp
	.cfi_def_cfa 7, 8
	ret
	.cfi_endproc
.LFE5:
	.size	reverse, .-reverse
	.globl	push
	.type	push, @function
push:
.LFB6:
	.cfi_startproc
	pushq	%rbp
	.cfi_def_cfa_offset 16
	.cfi_offset 6, -16
	movq	%rsp, %rbp
	.cfi_def_cfa_register 6
	subq	$32, %rsp
	movq	%rdi, -24(%rbp)
	movl	%esi, -28(%rbp)
	movl	$16, %edi
	call	malloc@PLT
	movq	%rax, -8(%rbp)
	movq	-8(%rbp), %rax
	movl	-28(%rbp), %edx
	movl	%edx, (%rax)
	movq	-24(%rbp), %rax
	movq	(%rax), %rdx
	movq	-8(%rbp), %rax
	movq	%rdx, 8(%rax)
	movq	-24(%rbp), %rax
	movq	-8(%rbp), %rdx
	movq	%rdx, (%rax)
	nop
	leave
	.cfi_def_cfa 7, 8
	ret
	.cfi_endproc
.LFE6:
	.size	push, .-push
	.section	.rodata
.LC0:
	.string	"%d  "
	.text
	.globl	printList
	.type	printList, @function
printList:
.LFB7:
	.cfi_startproc
	pushq	%rbp
	.cfi_def_cfa_offset 16
	.cfi_offset 6, -16
	movq	%rsp, %rbp
	.cfi_def_cfa_register 6
	subq	$32, %rsp
	movq	%rdi, -24(%rbp)
	movq	-24(%rbp), %rax
	movq	%rax, -8(%rbp)
	jmp	.L6
.L7:
	movq	-8(%rbp), %rax
	movl	(%rax), %eax
	movl	%eax, %esi
	leaq	.LC0(%rip), %rdi
	movl	$0, %eax
	call	printf@PLT
	movq	-8(%rbp), %rax
	movq	8(%rax), %rax
	movq	%rax, -8(%rbp)
.L6:
	cmpq	$0, -8(%rbp)
	jne	.L7
	nop
	leave
	.cfi_def_cfa 7, 8
	ret
	.cfi_endproc
.LFE7:
	.size	printList, .-printList
	.section	.rodata
.LC1:
	.string	"Given linked list"
.LC2:
	.string	"\nReversed Linked list "
	.text
	.globl	main
	.type	main, @function
main:
.LFB8:
	.cfi_startproc
	pushq	%rbp
	.cfi_def_cfa_offset 16
	.cfi_offset 6, -16
	movq	%rsp, %rbp
	.cfi_def_cfa_register 6
	subq	$16, %rsp
	movq	%fs:40, %rax
	movq	%rax, -8(%rbp)
	xorl	%eax, %eax
	movq	$0, -16(%rbp)
	leaq	-16(%rbp), %rax
	movl	$20, %esi
	movq	%rax, %rdi
	call	push
	leaq	-16(%rbp), %rax
	movl	$4, %esi
	movq	%rax, %rdi
	call	push
	leaq	-16(%rbp), %rax
	movl	$15, %esi
	movq	%rax, %rdi
	call	push
	leaq	-16(%rbp), %rax
	movl	$85, %esi
	movq	%rax, %rdi
	call	push
	leaq	.LC1(%rip), %rdi
	call	puts@PLT
	movq	-16(%rbp), %rax
	movq	%rax, %rdi
	call	printList
	leaq	-16(%rbp), %rax
	movq	%rax, %rdi
	call	reverse
	leaq	.LC2(%rip), %rdi
	call	puts@PLT
	movq	-16(%rbp), %rax
	movq	%rax, %rdi
	call	printList
	call	getchar@PLT
	movl	$0, %eax
	movq	-8(%rbp), %rdx
	xorq	%fs:40, %rdx
	je	.L10
	call	__stack_chk_fail@PLT
.L10:
	leave
	.cfi_def_cfa 7, 8
	ret
	.cfi_endproc
.LFE8:
	.size	main, .-main
	.ident	"GCC: (Ubuntu 7.5.0-3ubuntu1~18.04) 7.5.0"
	.section	.note.GNU-stack,"",@progbits
